target datalayout = "e-m:e-p270:32:32-p271:32:32-p272:64:64-i64:64-i128:128-f80:128-n8:16:32:64-S128"
target triple = "x86_64-pc-linux-gnu"

%"class.xgboost::collective::SockAddress" = type { %"class.xgboost::collective::SockAddrV6", %"class.xgboost::collective::SockAddrV4", i32 }
%"class.xgboost::collective::SockAddrV6" = type { %struct.sockaddr_in6 }
%struct.sockaddr_in6 = type { i16, i16, i32, %struct.in6_addr, i32 }
%struct.in6_addr = type { %union.anon }
%union.anon = type { [4 x i32] }
%"class.xgboost::collective::SockAddrV4" = type { %struct.sockaddr_in }
%struct.sockaddr_in = type { i16, i16, %struct.in_addr, [8 x i8] }
%struct.in_addr = type { i32 }
%"struct.xgboost::StringView" = type { ptr, i64 }

@.str.4 = private unnamed_addr constant [8 x i8] c"0.0.0.0\00", align 1

; Function Attrs: mustprogress nounwind uwtable
define linkonce_odr noundef i64 @_ZNSt11char_traitsIcE6lengthEPKc(ptr noundef %0) #7 comdat align 2 {
  %2 = alloca ptr, align 8
  store ptr %0, ptr %2, align 8, !tbaa !17
  %3 = load ptr, ptr %2, align 8, !tbaa !17
  %4 = call i64 @strlen(ptr noundef %3) #3
  ret i64 %4
}

; Function Attrs: mustprogress nounwind uwtable
define linkonce_odr noundef nonnull align 4 dereferenceable(16) ptr @_ZNK7xgboost10collective11SockAddress2V4Ev(ptr noundef nonnull align 4 dereferenceable(48) %0) #7 comdat align 2 {
  %2 = alloca ptr, align 8
  store ptr %0, ptr %2, align 8, !tbaa !42
  %3 = load ptr, ptr %2, align 8
  %4 = getelementptr inbounds nuw %"class.xgboost::collective::SockAddress", ptr %3, i32 0, i32 1
  ret ptr %4
}

; Function Attrs: mustprogress nounwind uwtable
define linkonce_odr void @_ZN7xgboost10StringViewC2EPKc(ptr noundef nonnull align 8 dereferenceable(16) %0, ptr noundef %1) unnamed_addr #7 comdat align 2 {
  %3 = alloca ptr, align 8
  %4 = alloca ptr, align 8
  store ptr %0, ptr %3, align 8, !tbaa !32
  store ptr %1, ptr %4, align 8, !tbaa !17
  %5 = load ptr, ptr %3, align 8
  %6 = getelementptr inbounds nuw %"struct.xgboost::StringView", ptr %5, i32 0, i32 0
  %7 = load ptr, ptr %4, align 8, !tbaa !17
  store ptr %7, ptr %6, align 8, !tbaa !34
  %8 = getelementptr inbounds nuw %"struct.xgboost::StringView", ptr %5, i32 0, i32 1
  %9 = load ptr, ptr %4, align 8, !tbaa !17
  %10 = icmp eq ptr %9, null
  br i1 %10, label %11, label %12

11:                                               ; preds = %2
  br label %15

12:                                               ; preds = %2
  %13 = load ptr, ptr %4, align 8, !tbaa !17
  %14 = call noundef i64 @_ZNSt11char_traitsIcE6lengthEPKc(ptr noundef %13)
  br label %15

15:                                               ; preds = %12, %11
  %16 = phi i64 [ 0, %11 ], [ %14, %12 ]
  store i64 %16, ptr %8, align 8, !tbaa !53
  ret void
}

; Function Attrs: mustprogress uwtable
define { i64, i64 } @_ZN7xgboost10collective10SockAddrV49InaddrAnyEv() #4 align 2 {
  %1 = alloca %"class.xgboost::collective::SockAddrV4", align 4
  %2 = alloca %"class.xgboost::collective::SockAddress", align 4
  %3 = alloca %"struct.xgboost::StringView", align 8
  call void @llvm.lifetime.start.p0(i64 48, ptr %2) #3
  call void @_ZN7xgboost10StringViewC2EPKc(ptr noundef nonnull align 8 dereferenceable(16) %3, ptr noundef @.str.4)
  %4 = getelementptr inbounds nuw { ptr, i64 }, ptr %3, i32 0, i32 0
  %5 = load ptr, ptr %4, align 8
  %6 = getelementptr inbounds nuw { ptr, i64 }, ptr %3, i32 0, i32 1
  %7 = load i64, ptr %6, align 8
  call void @_ZN7xgboost10collective15MakeSockAddressENS_10StringViewEt(ptr dead_on_unwind writable sret(%"class.xgboost::collective::SockAddress") align 4 %2, ptr %5, i64 %7, i16 noundef zeroext 0)
  %8 = call noundef nonnull align 4 dereferenceable(16) ptr @_ZNK7xgboost10collective11SockAddress2V4Ev(ptr noundef nonnull align 4 dereferenceable(48) %2)
  call void @llvm.memcpy.p0.p0.i64(ptr align 4 %1, ptr align 4 %8, i64 16, i1 false), !tbaa.struct !26
  call void @llvm.lifetime.end.p0(i64 48, ptr %2) #3
  %9 = getelementptr inbounds nuw %"class.xgboost::collective::SockAddrV4", ptr %1, i32 0, i32 0
  %10 = load { i64, i64 }, ptr %9, align 4
  ret { i64, i64 } %10
}